; Function Attrs: nounwind uwtable
define ptr @l_Array_foldrMUnsafe_fold___at_Lean_Elab_FixedParamPerm_numFixed___spec__1(ptr noundef readonly captures(none) %0, i64 noundef %1, i64 noundef %2, ptr noundef %3) local_unnamed_addr #1 {
  %.not42 = icmp eq i64 %1, %2
  br i1 %.not42, label %._crit_edge, label %.lr.ph

.lr.ph:                                           ; preds = %4
  %5 = getelementptr inbounds nuw i8, ptr %0, i64 24
  br label %6

6:                                                ; preds = %.lr.ph, %lean_dec.exit
  %.01744 = phi i64 [ %1, %.lr.ph ], [ %7, %lean_dec.exit ]
  %.02143 = phi ptr [ %3, %.lr.ph ], [ %.223, %lean_dec.exit ]
  %7 = add i64 %.01744, -1
  %8 = getelementptr inbounds nuw [0 x ptr], ptr %5, i64 0, i64 %7
  %9 = load ptr, ptr %8, align 8, !tbaa !9
  %10 = ptrtoint ptr %9 to i64
  %11 = and i64 %10, 1
  %.not.i27 = icmp eq i64 %11, 0
  br i1 %.not.i27, label %12, label %lean_obj_tag.exit

12:                                               ; preds = %6
  %.val.i.i = load i32, ptr %9, align 4, !tbaa !4
  %13 = icmp sgt i32 %.val.i.i, 0
  br i1 %13, label %14, label %16, !prof !11

14:                                               ; preds = %12
  %15 = add nuw i32 %.val.i.i, 1
  store i32 %15, ptr %9, align 4, !tbaa !4
  br label %lean_obj_tag.exit.thread

16:                                               ; preds = %12
  %.not.i.i = icmp eq i32 %.val.i.i, 0
  br i1 %.not.i.i, label %lean_obj_tag.exit.thread, label %17

17:                                               ; preds = %16
  tail call void @lean_inc_ref_cold(ptr noundef nonnull %9) #5
  br label %lean_obj_tag.exit.thread

lean_obj_tag.exit:                                ; preds = %6
  %18 = and i64 %10, 8589934590
  %19 = icmp eq i64 %18, 0
  br i1 %19, label %lean_dec.exit, label %lean_dec.exit24

lean_obj_tag.exit.thread:                         ; preds = %17, %16, %14
  %20 = getelementptr i8, ptr %9, i64 4
  %.val.i = load i32, ptr %20, align 4
  %21 = icmp ult i32 %.val.i, 16777216
  br i1 %21, label %lean_dec.exit, label %.thread

.thread:                                          ; preds = %lean_obj_tag.exit.thread
  %22 = load i32, ptr %9, align 4, !tbaa !4
  %23 = icmp sgt i32 %22, 1
  br i1 %23, label %24, label %26, !prof !11

24:                                               ; preds = %.thread
  %25 = add nsw i32 %22, -1
  store i32 %25, ptr %9, align 4, !tbaa !4
  br label %lean_dec.exit24

26:                                               ; preds = %.thread
  %.not.i = icmp eq i32 %22, 0
  br i1 %.not.i, label %lean_dec.exit24, label %27

27:                                               ; preds = %26
  tail call void @lean_dec_ref_cold(ptr noundef nonnull %9) #5
  br label %lean_dec.exit24

lean_dec.exit24:                                  ; preds = %lean_obj_tag.exit, %27, %26, %24
  %28 = ptrtoint ptr %.02143 to i64
  %29 = and i64 %28, 1
  %.not41 = icmp eq i64 %29, 0
  br i1 %.not41, label %40, label %30, !prof !14

30:                                               ; preds = %lean_dec.exit24
  %31 = lshr i64 %28, 1
  %32 = add nuw i64 %31, 1
  %33 = icmp sgt i64 %32, -1
  br i1 %33, label %34, label %38, !prof !11

34:                                               ; preds = %30
  %35 = shl nuw i64 %32, 1
  %36 = or disjoint i64 %35, 1
  %37 = inttoptr i64 %36 to ptr
  br label %lean_dec.exit

38:                                               ; preds = %30
  %39 = tail call ptr @lean_big_usize_to_nat(i64 noundef range(i64 0, -1) %32) #5
  br label %lean_dec.exit

40:                                               ; preds = %lean_dec.exit24
  %41 = tail call ptr @lean_nat_big_add(ptr noundef %.02143, ptr noundef nonnull inttoptr (i64 3 to ptr)) #5
  %42 = load i32, ptr %.02143, align 4, !tbaa !4
  %43 = icmp sgt i32 %42, 1
  br i1 %43, label %44, label %46, !prof !11

44:                                               ; preds = %40
  %45 = add nsw i32 %42, -1
  store i32 %45, ptr %.02143, align 4, !tbaa !4
  br label %lean_dec.exit

46:                                               ; preds = %40
  %.not.i25 = icmp eq i32 %42, 0
  br i1 %.not.i25, label %lean_dec.exit, label %47

47:                                               ; preds = %46
  tail call void @lean_dec_ref_cold(ptr noundef nonnull %.02143) #5
  br label %lean_dec.exit

lean_dec.exit:                                    ; preds = %34, %38, %44, %46, %47, %lean_obj_tag.exit.thread, %lean_obj_tag.exit
  %.223 = phi ptr [ %.02143, %lean_obj_tag.exit ], [ %.02143, %lean_obj_tag.exit.thread ], [ %41, %44 ], [ %41, %46 ], [ %41, %47 ], [ %39, %38 ], [ %37, %34 ]
  %.not = icmp eq i64 %7, %2
  br i1 %.not, label %._crit_edge, label %6

._crit_edge:                                      ; preds = %lean_dec.exit, %4
  %.021.lcssa = phi ptr [ %3, %4 ], [ %.223, %lean_dec.exit ]
  ret ptr %.021.lcssa
}